(lp0
(I0
F510.319793
F750.243934108
F9.029127834000064
tp1
a(I0
F78.854953
F677.690792511
F10.33682088699993
tp2
a(I0
F79.285341
F648.451592987
F10.180203179000046
tp3
a(I0
F79.285341
F619.185149987
F10.180203179000046
tp4
a(I0
F79.285341
F589.918706987
F10.180203179000046
tp5
a(I0
F79.285341
F560.652263987
F10.180203179000046
tp6
a(I0
F79.285341
F531.385820987
F10.180203179000046
tp7
a(I0
F79.285341
F502.119377987
F10.180203179000046
tp8
a(I0
F79.285341
F472.852933987
F10.180203178999989
tp9
a(I0
F79.285341
F443.586490987
F10.180203178999989
tp10
a(I0
F79.285341
F414.320047987
F10.180203178999989
tp11
a(I0
F79.285341
F385.053578987
F10.180203178999989
tp12
a(I0
F79.285341
F355.787135987
F10.180203178999989
tp13
a(I0
F79.285341
F326.520692987
F10.180203178999989
tp14
a(I0
F79.285341
F297.254249987
F10.180203178999989
tp15
a(I0
F79.285341
F267.987806987
F10.180203178999989
tp16
a(I0
F79.285341
F238.721363987
F10.180203179000017
tp17
a(I0
F79.285341
F209.45492098699998
F10.180203179000017
tp18
a(I0
F79.285341
F180.188477987
F10.180203179000017
tp19
a(I0
F78.854953
F141.512345511
F10.336820887000016
tp20
a(I0
F79.285341
F112.273145987
F10.180203179000003
tp21
a(I1
F79.285341
F768.444003987
F10.180203179000046
tp22
a(I1
F79.285341
F739.177560987
F10.180203179000046
tp23
a(I1
F225.316279
F704.037387948
F21.926590716000078
tp24
a(I1
F269.58179
F677.280539974
F10.963295357999982
tp25
a(I1
F251.301007
F651.2384759519999
F12.777460584000096
tp26
a(I1
F227.898612
F634.192489268
F10.689213155999937
tp27
a(I1
F82.082869
F606.5444506680001
F11.372402213999976
tp28
a(I1
F91.831174
F607.031802386
F11.511459762000072
tp29
a(I1
F453.54072
F607.031802386
F11.511459762000072
tp30
a(I1
F500.517676
F605.898867668
F11.372402213999976
tp31
a(I1
F208.832391
F573.1561309479999
F21.926590716000078
tp32
a(I1
F71.107953
F504.98877475
F58.22838674999997
tp33
a(I1
F69.171203
F476.557189687
F18.637603078999973
tp34
a(I1
F71.107953
F437.46075075000005
F27.240387749999968
tp35
a(I1
F109.197368
F412.92858575
F11.746388749999994
tp36
a(I1
F109.197368
F391.62433675
F11.746388749999994
tp37
a(I1
F109.197368
F370.32008775
F11.746388749999994
tp38
a(I1
F109.197368
F333.52183975
F27.240387749999968
tp39
a(I1
F69.171203
F306.627796024
F14.252284207999992
tp40
a(I1
F107.260618
F282.893711974
F10.963295358000039
tp41
a(I1
F107.260618
F264.17179597399996
F10.963295358000039
tp42
a(I1
F107.260618
F245.449879974
F10.963295357999982
tp43
a(I1
F69.171203
F213.223771687
F18.637603079
tp44
a(I1
F90.690646
F179.707980974
F12.074989775999995
tp45
a(I1
F345.394773
F179.707980974
F12.074989775999995
tp46
a(I1
F113.286062
F139.531189974
F10.96329535800001
tp47
a(I1
F113.286062
F120.809273974
F10.96329535800001
tp48
a(I1
F113.286062
F102.087358974
F10.963295357999996
tp49
a(I1
F367.990189
F139.531189974
F10.96329535800001
tp50
a(I1
F367.990189
F120.809273974
F10.96329535800001
tp51
a(I1
F367.990189
F102.087358974
F10.963295357999996
tp52
a(I2
F113.286062
F768.307785974
F10.963295357999982
tp53
a(I2
F113.286062
F749.585869974
F10.963295357999982
tp54
a(I2
F113.286062
F730.8639539740001
F10.963295357999982
tp55
a(I2
F113.286062
F712.142037974
F10.963295357999982
tp56
a(I2
F113.286062
F693.420122974
F10.963295357999982
tp57
a(I2
F113.286062
F674.6982069740001
F10.963295357999982
tp58
a(I2
F113.286062
F655.976290974
F10.963295357999982
tp59
a(I2
F367.990189
F768.307785974
F10.963295357999982
tp60
a(I2
F367.990189
F749.585869974
F10.963295357999982
tp61
a(I2
F367.990189
F730.8639539740001
F10.963295357999982
tp62
a(I2
F367.990189
F712.142037974
F10.963295357999982
tp63
a(I2
F367.990189
F693.420122974
F10.963295357999982
tp64
a(I2
F367.990189
F674.6982069740001
F10.963295357999982
tp65
a(I2
F367.990189
F655.976290974
F10.963295357999982
tp66
a(I2
F113.286062
F637.254374974
F10.963295357999982
tp67
a(I2
F367.990189
F637.254374974
F10.963295357999982
tp68
a(I2
F113.286062
F618.5324599740001
F10.963295357999982
tp69
a(I2
F113.286062
F599.810543974
F10.963295357999982
tp70
a(I2
F113.286062
F581.088627974
F10.963295357999982
tp71
a(I2
F113.286062
F562.366711974
F10.963295357999982
tp72
a(I2
F113.286062
F543.644796974
F10.963295357999982
tp73
a(I2
F113.286062
F524.922880974
F10.963295357999982
tp74
a(I2
F113.286062
F506.200964974
F10.963295358000039
tp75
a(I2
F113.286062
F487.47904897399997
F10.963295358000039
tp76
a(I2
F113.286062
F468.757133974
F10.963295358000039
tp77
a(I2
F113.286062
F450.035217974
F10.963295358000039
tp78
a(I2
F113.286062
F431.31330197399996
F10.963295358000039
tp79
a(I2
F113.286062
F412.591385974
F10.963295358000039
tp80
a(I2
F113.286062
F393.86947097399997
F10.963295358000039
tp81
a(I2
F113.286062
F375.14755497399995
F10.963295358000039
tp82
a(I2
F367.990189
F618.5324599740001
F10.963295357999982
tp83
a(I2
F346.040356
F592.687612974
F12.074989775999939
tp84
a(I2
F368.635772
F564.949045974
F10.963295357999982
tp85
a(I2
F368.635772
F546.227129974
F10.963295357999982
tp86
a(I2
F368.635772
F527.5052139740001
F10.963295357999982
tp87
a(I2
F368.635772
F508.783297974
F10.963295357999982
tp88
a(I2
F368.635772
F490.06138297399997
F10.963295358000039
tp89
a(I2
F368.635772
F471.33946697399995
F10.963295358000039
tp90
a(I2
F368.635772
F452.617550974
F10.963295358000039
tp91
a(I2
F69.171203
F325.705891687
F18.637603078999973
tp92
a(I2
F90.690646
F292.19010097399996
F12.074989776000052
tp93
a(I2
F298.245678
F292.19010097399996
F12.074989776000052
tp94
a(I2
F113.286062
F252.013309974
F10.96329535800001
tp95
a(I2
F113.286062
F233.291394974
F10.96329535800001
tp96
a(I2
F320.841094
F252.013309974
F10.96329535800001
tp97
a(I2
F320.841094
F233.291394974
F10.96329535800001
tp98
a(I2
F113.286062
F214.569478974
F10.96329535800001
tp99
a(I2
F320.841094
F214.569478974
F10.96329535800001
tp100
a(I2
F113.286062
F195.847562974
F10.96329535800001
tp101
a(I2
F320.841094
F195.847562974
F10.96329535800001
tp102
a(I2
F113.286062
F177.125646974
F10.96329535800001
tp103
a(I2
F113.286062
F158.403731974
F10.96329535800001
tp104
a(I2
F113.286062
F139.681815974
F10.96329535800001
tp105
a(I2
F320.841094
F177.125646974
F10.96329535800001
tp106
a(I2
F320.841094
F158.403731974
F10.96329535800001
tp107
a(I2
F320.841094
F139.681815974
F10.96329535800001
tp108
a(I2
F113.286062
F120.959899974
F10.96329535800001
tp109
a(I2
F320.841094
F120.959899974
F10.96329535800001
tp110
a(I2
F113.286062
F102.237983974
F10.963295357999996
tp111
a(I2
F320.841094
F102.237983974
F10.963295357999996
tp112
a(I3
F113.286062
F768.307785974
F10.963295357999982
tp113
a(I3
F320.841094
F768.307785974
F10.963295357999982
tp114
a(I3
F320.841094
F749.585869974
F10.963295357999982
tp115
a(I3
F90.690646
F710.2698439740001
F12.074989775999939
tp116
a(I3
F298.245678
F710.2698439740001
F12.074989775999939
tp117
a(I3
F113.286062
F670.093040974
F10.963295357999982
tp118
a(I3
F113.286062
F651.371124974
F10.963295357999982
tp119
a(I3
F113.286062
F632.649208974
F10.963295357999982
tp120
a(I3
F113.286062
F613.927293974
F10.963295357999982
tp121
a(I3
F113.286062
F595.205377974
F10.963295357999982
tp122
a(I3
F113.286062
F576.4834619740001
F10.963295357999982
tp123
a(I3
F320.841094
F670.093040974
F10.963295357999982
tp124
a(I3
F320.841094
F651.371124974
F10.963295357999982
tp125
a(I3
F320.841094
F632.649208974
F10.963295357999982
tp126
a(I3
F320.841094
F613.927293974
F10.963295357999982
tp127
a(I3
F320.841094
F595.205377974
F10.963295357999982
tp128
a(I3
F90.690646
F536.306671974
F12.074989775999939
tp129
a(I3
F113.286062
F496.12985497399995
F10.963295358000039
tp130
a(I3
F113.286062
F477.407938974
F10.963295358000039
tp131
a(I3
F113.286062
F458.68602397399997
F10.963295358000039
tp132
a(I3
F113.286062
F439.96410797399994
F10.963295358000039
tp133
a(I3
F113.286062
F421.242191974
F10.963295358000039
tp134
a(I3
F69.171203
F370.939750687
F18.637603078999973
tp135
a(I3
F71.107953
F316.34931275
F42.734387749999996
tp136
a(I3
F107.260618
F292.383754974
F10.963295358000039
tp137
a(I3
F107.260618
F273.661838974
F10.963295358000039
tp138
a(I3
F107.260618
F254.93992297399998
F10.96329535800001
tp139
a(I3
F107.260618
F236.218006974
F10.96329535800001
tp140
a(I3
F69.171203
F203.99195068699999
F18.637603079
tp141
a(I3
F71.107953
F164.89551275
F27.240387749999996
tp142
a(I3
F71.107953
F143.59126375
F11.746388749999994
tp143
a(I3
F107.260618
F119.625704974
F10.96329535800001
tp144
a(I3
F107.260618
F100.903788974
F10.963295357999996
tp145
a(I3
F107.260618
F82.181873974
F10.963295357999996
tp146
a(I4
F107.260618
F774.333229974
F10.963295357999982
tp147
a(I4
F107.260618
F755.611313974
F10.963295357999982
tp148
a(I4
F107.260618
F736.8893979740001
F10.963295357999982
tp149
a(I4
F107.260618
F718.167482974
F10.963295357999982
tp150
a(I4
F71.107953
F693.06870975
F11.746388749999937
tp151
a(I4
F71.107953
F671.76446075
F11.746388749999937
tp152
a(I4
F71.107953
F650.46021175
F12.937490000000025
tp153
a(I4
F197.254933
F622.435655948
F21.926590716000078
tp154
a(I4
F71.107953
F569.76229975
F43.92548800000009
tp155
a(I4
F69.171203
F541.3307136870001
F18.637603078999973
tp156
a(I4
F71.107953
F502.23427575000005
F27.240387749999854
tp157
a(I4
F71.107953
F449.94202775
F42.734387749999996
tp158
a(I4
F69.171203
F183.440882687
F18.637603079
tp159
a(I4
F71.107953
F113.35644574999999
F58.22838574999999
tp160
a(I4
F71.107953
F92.05219675
F11.746388750000008
tp161
a(I5
F107.260618
F774.333229974
F10.963295357999982
tp162
a(I5
F107.260618
F755.611313974
F10.963295357999982
tp163
a(I5
F107.260618
F736.8893979740001
F10.963295357999982
tp164
a(I5
F107.260618
F718.167482974
F10.963295357999982
tp165
a(I5
F71.107953
F677.57471075
F27.240387749999968
tp166
a(I5
F69.171203
F391.060456687
F18.637603078999973
tp167
a(I5
F71.107953
F351.96399175000005
F27.240387749999968
tp168
a(I5
F107.260618
F327.99843297399997
F10.963295358000039
tp169
a(I5
F107.260618
F309.27651797399994
F10.963295358000039
tp170
a(I5
F71.107953
F253.18974674999998
F42.734386750000056
tp171
a(I5
F71.107953
F200.89749874999998
F43.74149775000001
tp172
a(I5
F264.69686
F200.89749874999998
F11.746388749999994
tp173
a(I5
F69.171203
F172.465966687
F18.637603079
tp174
a(I5
F71.107953
F148.86352675
F11.746388749999994
tp175
a(I5
F109.197368
F124.33136175
F11.746388750000008
tp176
a(I5
F109.197368
F103.02711275
F11.746388750000008
tp177
a(I5
F109.197368
F81.72286375
F11.746388750000008
tp178
a(I6
F109.197368
F758.27262375
F27.240387749999968
tp179
a(I6
F109.197368
F736.9683747500001
F11.746388749999937
tp180
a(I6
F109.197368
F700.17012675
F27.240387749999968
tp181
a(I6
F109.197368
F663.3718777500001
F27.240388749999852
tp182
a(I6
F109.197368
F642.06762875
F11.746388749999937
tp183
a(I6
F69.171203
F610.408140687
F18.637603078999973
tp184
a(I6
F71.107953
F571.31168875
F27.240387749999968
tp185
a(I6
F109.197368
F546.7795237500001
F12.937490000000025
tp186
a(I6
F109.197368
F525.47527475
F12.937490000000025
tp187
a(I6
F109.197368
F488.67702575000004
F28.431489999999997
tp188
a(I6
F109.197368
F467.37277675
F12.937489999999968
tp189
a(I6
F109.197368
F446.06852775000004
F12.937489999999968
tp190
a(I6
F109.197368
F409.27027975000004
F28.43148999999994
tp191
a(I6
F109.197368
F372.47203175000004
F28.431488999999942
tp192
a(I6
F109.197368
F351.16778275
F12.937489999999968
tp193
a(I6
F69.171203
F319.508280687
F18.637603078999973
tp194
a(I6
F71.107953
F295.90584175000004
F11.746388749999994
tp195
a(I6
F109.197368
F271.37367675
F11.746388749999994
tp196
a(I6
F109.197368
F234.57542775
F27.240388749999994
tp197
a(I6
F109.197368
F213.27117875
F11.746388749999994
tp198
a(I6
F109.197368
F191.96692975
F11.746388749999994
tp199
a(I6
F109.197368
F170.66268075
F11.746388749999994
tp200
a(I6
F109.197368
F133.86443275
F27.240387749999996
tp201
a(I6
F69.171203
F102.204983687
F18.637603079
tp202
a(I6
F71.107953
F78.60254474999999
F11.746388750000008
tp203
a(I7
F109.197368
F758.27262375
F27.240387749999968
tp204
a(I7
F109.197368
F736.9683747500001
F11.746388749999937
tp205
a(I7
F109.197368
F715.66412575
F11.746388749999937
tp206
a(I7
F109.197368
F694.35987675
F11.746388749999937
tp207
a(I7
F109.197368
F673.05562775
F11.746388749999937
tp208
a(I7
F69.171203
F641.3961386870001
F18.637603078999973
tp209
a(I7
F71.107953
F602.29968775
F27.240400749999935
tp210
a(I7
F71.107953
F565.50143875
F27.240388749999966
tp211
a(I7
F71.107953
F544.19718975
F11.746388749999937
tp212
a(I7
F239.605195
F516.172633948
F21.926590716000078
tp213
a(I7
F71.107953
F478.99327675
F27.240387750000025
tp214
a(I7
F107.260618
F455.027717974
F10.963295358000039
tp215
a(I7
F107.260618
F436.30580297399996
F10.963295358000039
tp216
a(I7
F107.260618
F417.583886974
F10.963295358000039
tp217
a(I7
F107.260618
F398.861970974
F10.963295358000039
tp218
a(I7
F107.260618
F380.14005497399995
F10.963295358000039
tp219
a(I7
F107.260618
F361.418139974
F10.963295358000039
tp220
a(I7
F107.260618
F342.69622397399996
F10.963295358000039
tp221
a(I7
F107.260618
F323.974307974
F10.963295358000039
tp222
a(I7
F107.260618
F305.252391974
F10.963295358000039
tp223
a(I7
F107.260618
F286.53047597399996
F10.963295358000039
tp224
a(I7
F107.260618
F267.808560974
F10.963295358000039
tp225
a(I8
F69.171203
F716.606593687
F18.637603078999973
tp226
a(I8
F71.107953
F677.51015475
F27.240388749999966
tp227
a(I8
F107.260618
F653.544596974
F10.963295357999982
tp228
a(I8
F107.260618
F634.822680974
F10.963295357999982
tp229
a(I8
F107.260618
F616.1007649740001
F10.963295357999982
tp230
a(I8
F107.260618
F597.378835974
F10.963295357999982
tp231
a(I8
F107.260618
F578.6569209740001
F10.963295357999982
tp232
a(I8
F71.107953
F522.57014975
F43.92548799999997
tp233
a(I8
F69.171203
F494.13859068700003
F18.637603078999973
tp234
a(I8
F109.197368
F453.68641675000003
F27.240387749999968
tp235
a(I8
F109.197368
F416.88816775000004
F27.240388749999966
tp236
a(I8
F109.197368
F380.08994675
F27.240361749999977
tp237
a(I8
F109.197368
F358.78569775
F11.746388749999994
tp238
a(I8
F109.197368
F321.98744875
F27.240388750000022
tp239
a(I8
F109.197368
F285.18920075
F27.240387750000025
tp240
a(I8
F109.197368
F263.88495175
F11.746388749999994
tp241
a(I8
F109.197368
F242.58070275
F11.746388749999994
tp242
a(I8
F71.107953
F187.06053875
F43.925489
tp243
a(I8
F71.107953
F165.75628975
F11.746388749999994
tp244
a(I8
F107.260618
F141.790731974
F10.96329535800001
tp245
a(I8
F107.260618
F123.068815974
F10.963295357999996
tp246
a(I8
F71.107953
F97.97004375
F11.746388750000008
tp247
a(I9
F69.171203
F766.6392996870001
F18.637603078999973
tp248
a(I9
F109.197368
F741.6811317500001
F11.746388749999937
tp249
a(I9
F109.197368
F720.37688875
F11.746388749999937
tp250
a(I9
F109.197368
F699.07263975
F11.746388749999937
tp251
a(I9
F109.197368
F677.76839075
F11.746388749999937
tp252
a(I9
F109.197368
F640.97014275
F27.240387749999968
tp253
a(I9
F109.197368
F604.17189475
F27.240387749999968
tp254
a(I9
F109.197368
F567.37364675
F27.240387749999968
tp255
a(I9
F69.171203
F345.41772268700004
F18.637603078999973
tp256
a(I9
F71.107953
F290.82728475000005
F42.73438675
tp257
a(I9
F71.107953
F238.53503675
F42.734387750000025
tp258
a(I9
F71.107953
F186.24278975
F42.73438675
tp259
a(I9
F69.171203
F157.811204687
F18.637603079
tp260
a(I9
F109.197368
F101.86503075
F42.73438774999998
tp261
a(I9
F109.197368
F80.56078174999999
F11.746388750000008
tp262
a(I10
F109.197368
F758.27262375
F27.240387749999968
tp263
a(I10
F109.197368
F736.9683747500001
F11.746388749999937
tp264
a(I10
F109.197368
F715.66412575
F11.746388749999937
tp265
a(I10
F109.197368
F694.35987675
F11.746388749999937
tp266
a(I10
F69.171203
F662.700387687
F18.637603078999973
tp267
a(I10
F71.107953
F623.60394975
F27.240387749999968
tp268
a(I10
F69.171203
F413.91409468700004
F18.637603078999973
tp269
a(I10
F71.107953
F359.32368375000004
F42.73438675
tp270
a(I10
F69.171203
F144.469149687
F18.637603079
tp271
a(I10
F71.107953
F89.87871175
F42.73438675000001
tp272
a(I11
F71.107953
F773.76662275
F11.746388749999937
tp273
a(I11
F71.107953
F542.64780075
F12.937490000000025
tp274
a(I11
F71.107953
F521.3435517500001
F12.937490000000025
tp275
a(I11
F107.260618
F497.377992974
F10.963295358000039
tp276
a(I11
F107.260618
F478.65607797399997
F10.963295358000039
tp277
a(I11
F107.260618
F459.93416197399995
F10.963295358000039
tp278
a(I11
F107.260618
F441.212245974
F10.963295358000039
tp279
a(I11
F107.260618
F422.49032997399996
F10.963295358000039
tp280
a(I11
F107.260618
F403.768414974
F10.963295358000039
tp281
a(I11
F107.260618
F385.046498974
F10.963295358000039
tp282
a(I11
F107.260618
F366.32458297399995
F10.963295358000039
tp283
a(I11
F107.260618
F347.602666974
F10.963295358000039
tp284
a(I11
F69.171203
F315.376558687
F18.637603078999973
tp285
a(I11
F71.107953
F276.28011975000004
F27.240387749999968
tp286
a(I11
F109.197368
F236.25395475
F27.240388750000022
tp287
a(I11
F109.197368
F199.45570675
F27.240387749999996
tp288
a(I11
F109.197368
F178.15145775
F11.746388749999994
tp289
a(I12
F69.171203
F654.630596687
F18.637603078999973
tp290
a(I12
F71.107953
F615.5341577500001
F27.240388749999852
tp291
a(I12
F71.107953
F563.24189775
F42.734386749999885
tp292
a(I12
F71.107953
F526.4436497500001
F27.240387749999854
tp293
a(I12
F109.197368
F501.91148375
F11.746388749999937
tp294
a(I12
F109.197368
F465.11323575
F27.240387750000025
tp295
a(I12
F109.197368
F428.31498775
F27.240387750000025
tp296
a(I12
F109.197368
F407.01073875000003
F11.746388749999994
tp297
a(I12
F71.107953
F382.47857275
F12.937489999999968
tp298
a(I12
F71.107953
F131.34666875
F27.240387749999996
tp299
a(I12
F71.107953
F79.05442074999999
F42.73438775000001
tp300
a(I13
F71.107953
F773.76662275
F11.746388749999937
tp301
a(I13
F107.260618
F749.801063974
F10.963295357999982
tp302
a(I13
F107.260618
F731.0791489740001
F10.963295357999982
tp303
a(I13
F107.260618
F712.357232974
F10.963295357999982
tp304
a(I13
F107.260618
F693.635316974
F10.963295357999982
tp305
a(I13
F107.260618
F674.9134009740001
F10.963295357999982
tp306
a(I13
F107.260618
F656.191485974
F10.963295357999982
tp307
a(I13
F107.260618
F637.469569974
F10.963295357999982
tp308
a(I13
F107.260618
F618.7476539740001
F10.963295357999982
tp309
a(I13
F107.260618
F600.025737974
F10.963295357999982
tp310
a(I13
F107.260618
F581.303822974
F10.963295357999982
tp311
a(I13
F107.260618
F562.581906974
F10.963295357999982
tp312
a(I13
F107.260618
F543.8599909740001
F10.963295357999982
tp313
a(I13
F107.260618
F525.138074974
F10.963295357999982
tp314
a(I13
F107.260618
F506.416159974
F10.963295358000039
tp315
a(I13
F141.132227
F474.597079948
F21.92659071600002
tp316
a(I13
F71.107953
F437.41772275000005
F27.240387749999968
tp317
a(I13
F69.171203
F408.98613768700005
F18.637603078999973
tp318
a(I13
F71.107953
F369.88969875000004
F27.240387749999968
tp319
a(I13
F71.107953
F129.73271075
F12.937489999999997
tp320
a(I13
F69.171203
F88.45840774999999
F31.860460482000008
tp321
a(I14
F107.260618
F774.333229974
F10.963295357999982
tp322
a(I14
F107.260618
F755.611313974
F10.963295357999982
tp323
a(I14
F107.260618
F736.8893979740001
F10.963295357999982
tp324
a(I14
F107.260618
F718.167482974
F10.963295357999982
tp325
a(I14
F107.260618
F699.445566974
F10.963295357999982
tp326
a(I14
F69.171203
F589.4095617500001
F31.86043448199996
tp327
a(I14
F109.197368
F564.87739575
F11.746388749999937
tp328
a(I14
F109.197368
F543.57314775
F11.746388749999937
tp329
a(I14
F109.197368
F506.77489875000003
F27.240388749999966
tp330
a(I14
F109.197368
F469.97665075000003
F27.240387749999968
tp331
a(I14
F69.171203
F357.92491975
F31.86040848199997
tp332
a(I14
F107.260618
F333.959360974
F10.963295358000039
tp333
a(I14
F107.260618
F315.23744597399997
F10.963295358000039
tp334
a(I14
F107.260618
F296.51552997399995
F10.963295358000039
tp335
a(I15
F71.107953
F610.26188175
F12.937490000000025
tp336
a(I15
F69.171203
F581.830322687
F18.637603078999973
tp337
a(I15
F71.107953
F542.73388375
F27.240387749999968
tp338
a(I15
F69.171203
F397.934805024
F14.252284207999992
tp339
a(I15
F109.197368
F358.14011375
F27.240388750000022
tp340
a(I15
F109.197368
F305.84786675000004
F42.73438675
tp341
a(I15
F69.171203
F274.18836468700005
F18.637603078999973
tp342
a(I15
F71.107953
F235.09192575
F27.240388749999994
tp343
a(I15
F109.197368
F179.57176275
F43.925488
tp344
a(I15
F109.197368
F127.27951475
F43.925489
tp345
a(I16
F109.197368
F555.86074375
F58.22838675000003
tp346
a(I16
F109.197368
F519.06249575
F27.240387749999968
tp347
a(I16
F69.171203
F487.40299468700005
F18.637603078999973
tp348
a(I16
F71.107953
F448.30655575000003
F27.240387749999968
tp349
a(I16
F71.107953
F427.00230675
F11.746388749999994
tp350
a(I16
F109.197368
F386.97616775
F28.431463000000008
tp351
a(I16
F109.197368
F365.67191875000003
F12.937489999999968
tp352
a(I16
F109.197368
F328.87367075000003
F28.43148999999994
tp353
a(I16
F71.107953
F86.77993275
F27.24038775000001
tp354
a(I17
F71.107953
F758.27262375
F27.240387749999968
tp355
a(I17
F69.171203
F729.841051687
F18.637603078999973
tp356
a(I17
F71.107953
F690.74461275
F27.240387749999968
tp357
a(I17
F109.197368
F666.21244775
F12.937490000000025
tp358
a(I17
F109.197368
F629.41419875
F28.431490000000053
tp359
a(I17
F71.107953
F604.88202075
F12.937490000000025
tp360
a(I17
F109.197368
F580.3498547500001
F12.937490000000025
tp361
a(I17
F109.197368
F559.04560575
F12.937490000000025
tp362
a(I17
F109.197368
F537.74135675
F12.937490000000025
tp363
a(I17
F71.107953
F513.2091917500001
F12.937490000000025
tp364
a(I17
F109.197368
F488.67702575000004
F11.746388749999994
tp365
a(I17
F109.197368
F467.37277675
F11.746388749999994
tp366
a(I17
F69.171203
F435.713301687
F18.637603078999973
tp367
a(I17
F109.197368
F410.75512675000004
F11.746388749999994
tp368
a(I17
F109.197368
F389.45090375
F11.746388749999994
tp369
a(I17
F109.197368
F368.14665475000004
F11.746388749999994
tp370
a(I17
F109.197368
F346.84240675
F11.746388749999994
tp371
a(I17
F69.171203
F315.182904687
F18.637603078999973
tp372
a(I17
F69.171203
F256.11641175
F47.354460482000036
tp373
a(I17
F71.107953
F234.81216275
F11.746388749999994
tp374
a(I18
F227.177716
F608.5125869479999
F21.926590716000078
tp375
a(I18
F71.107953
F571.33322875
F27.240388749999966
tp376
a(I18
F69.171203
F542.901643687
F18.637603078999973
tp377
a(I18
F71.107953
F488.31120575
F42.734387749999996
tp378
a(I18
F109.197368
F432.79104175000003
F42.734387749999996
tp379
a(I18
F109.197368
F365.00479575
F58.22838574999997
tp380
a(I18
F109.197368
F328.20654775
F27.240387749999968
tp381
a(I18
F109.197368
F291.40829875000003
F27.240388749999966
tp382
a(I18
F69.171203
F102.377097687
F18.637603079
tp383
a(I18
F71.107953
F78.77465775
F11.746388750000008
tp384
a(I19
F69.171203
F738.30258275
F47.35443348199999
tp385
a(I19
F69.171203
F681.5342937500001
F47.35443348199999
tp386
a(I19
F69.171203
F624.76599175
F47.35444648199996
tp387
a(I19
F69.171203
F567.99771575
F47.35443348199999
tp388
a(I19
F69.171203
F495.73541375
F62.84843348200002
tp389
a(I19
F69.171203
F438.96711175
F47.35446048199998
tp390
a(I19
F69.171203
F382.19880975
F47.35446048199998
tp391
a(I19
F69.171203
F325.43055975000004
F47.35440748199994
tp392
a(I19
F69.171203
F268.66225775000004
F47.354407482
tp393
a(I19
F69.171203
F240.230672687
F18.637603079
tp394
a(I19
F71.107953
F216.62823375
F11.746388749999994
tp395
a(I19
F69.171203
F175.35393075
F31.860460482000008
tp396
a(I19
F69.171203
F118.58562775
F47.35446048200002
tp397
a(I19
F69.171203
F94.919502024
F14.252284207999992
tp398
a(I20
F71.107953
F773.76662275
F11.746388749999937
tp399
a(I20
F69.171203
F716.99833375
F47.35443348199999
tp400
a(I20
F69.171203
F660.23004475
F47.35443348199999
tp401
a(I20
F69.171203
F631.798459687
F18.637603078999973
tp402
a(I20
F71.107953
F608.19601975
F11.746388749999937
tp403
a(I20
F69.171203
F566.92174375
F31.86043448199996
tp404
a(I20
F69.171203
F510.1534407500001
F47.35443448199999
tp405
a(I20
F154.61415
F482.128884948
F21.92659071600002
tp406
a(I20
F71.107953
F460.44352675000005
F11.746388749999994
tp407
a(I20
F107.260618
F436.47796897399996
F10.963295358000039
tp408
a(I20
F107.260618
F417.756052974
F10.963295358000039
tp409
a(I20
F107.260618
F399.034136974
F10.963295358000039
tp410
a(I20
F107.260618
F380.31222097399996
F10.963295358000039
tp411
a(I20
F69.171203
F348.086112687
F18.637603078999973
tp412
a(I20
F71.107953
F293.49567475000003
F42.73438675
tp413
a(I20
F71.107953
F272.19142575
F12.937489999999968
tp414
a(I20
F71.107953
F94.65601774999999
F12.937489999999997
tp415
a(I21
F109.197368
F505.16094075
F27.240387749999968
tp416
a(I21
F109.197368
F452.86869375000003
F42.73438675
tp417
a(I21
F69.171203
F421.20919168700004
F18.637603078999973
tp418
a(I21
F71.107953
F397.60675175
F11.746388749999994
tp419
a(I21
F109.197368
F357.58058775
F27.240387750000025
tp420
a(I22
F109.197368
F773.76662275
F11.746388749999937
tp421
a(I22
F109.197368
F714.3729587500001
F11.746388749999937
tp422
a(I22
F109.197368
F677.57471075
F28.431489000000056
tp423
a(I22
F109.197368
F640.7764627500001
F28.431488999999942
tp424
a(I22
F109.197368
F603.97821475
F28.431489000000056
tp425
a(I22
F109.197368
F567.1799657500001
F28.43148999999994
tp426
a(I22
F109.197368
F159.81690275
F27.240387749999996
tp427
a(I23
F69.171203
F595.624280687
F18.637603078999973
tp428
a(I23
F71.107953
F556.52784175
F27.240387749999968
tp429
a(I23
F69.171203
F528.096256687
F18.637603078999973
tp430
a(I23
F71.107953
F504.49381675
F11.746388749999994
tp431
a(I23
F107.260618
F480.528258974
F10.963295358000039
tp432
a(I23
F107.260618
F461.80634297399996
F10.963295358000039
tp433
a(I23
F107.260618
F443.084426974
F10.963295358000039
tp434
a(I23
F71.107953
F417.98565475000004
F11.746388749999994
tp435
a(I23
F109.197368
F393.45348875
F11.746388749999994
tp436
a(I23
F109.197368
F356.65524075
F27.240387750000025
tp437
a(I23
F109.197368
F335.35099175000005
F11.746388749999994
tp438
a(I23
F147.286783
F298.55274375000005
F27.240387749999968
tp439
a(I23
F147.286783
F277.24849475
F11.746388749999994
tp440
a(I23
F147.286783
F209.46224775
F58.228386750000055
tp441
a(I23
F147.286783
F188.15799875
F11.746388749999994
tp442
a(I23
F71.107953
F148.13183475
F28.431489
tp443
a(I24
F69.171203
F544.558630687
F18.637603078999973
tp444
a(I24
F71.107953
F520.95619075
F12.937490000000025
tp445
a(I24
F109.197368
F480.93002675
F27.240387749999968
tp446
a(I24
F109.197368
F457.61371475000004
F11.746388749999994
tp447
a(I24
F178.640614
F457.61371475000004
F11.746388749999994
tp448
a(I24
F69.171203
F134.376551687
F18.637603079
tp449
a(I24
F71.107953
F95.28011275
F27.24038775000001
tp450
a(I25
F69.171203
F533.024214687
F18.637603078999973
tp451
a(I25
F109.197368
F508.06606575
F11.746388749999937
tp452
a(I25
F109.197368
F221.42707975
F11.746388749999994
tp453
a(I25
F269.689387
F221.42707975
F11.746388749999994
tp454
a(I25
F71.107953
F180.50782675
F27.240387749999996
tp455
a(I26
F152.946394
F618.1210109479999
F21.926590716000078
tp456
a(I26
F71.107953
F580.94163975
F27.240387749999968
tp457
a(I26
F109.197368
F556.4094737500001
F11.746388749999937
tp458
a(I26
F109.197368
F535.10522575
F11.746388749999937
tp459
a(I26
F71.107953
F510.57305974999997
F11.746388749999937
tp460
a(I26
F71.107953
F473.77481175
F27.240387749999968
tp461
a(I26
F69.171203
F445.343252687
F18.637603078999973
tp462
a(I26
F71.107953
F421.34270875000004
F11.746388749999994
tp463
a(I26
F274.348326
F421.34270875000004
F11.746388749999994
tp464
a(I26
F71.107953
F403.66448075000005
F11.746388749999994
tp465
a(I26
F71.107953
F382.36020575000003
F11.746388749999994
tp466
a(I26
F107.260618
F358.39464697399995
F10.963295358000039
tp467
a(I26
F107.260618
F339.672730974
F10.963295358000039
tp468
a(I26
F107.260618
F320.95081597399997
F10.963295358000039
tp469
a(I26
F107.260618
F302.22889997399994
F10.963295358000039
tp470
a(I26
F107.260618
F283.506983974
F10.963295358000039
tp471
a(I26
F107.260618
F264.78506797399996
F10.963295358000039
tp472
a(I27
F69.171203
F654.8350336870001
F18.637603078999973
tp473
a(I27
F71.107953
F598.3078467500001
F44.59581074999994
tp474
a(I28
F71.107953
F751.22500575
F28.431489000000056
tp475
a(I28
F181.158392
F723.2004499479999
F21.926590716000078
tp476
a(I28
F71.107953
F686.02109275
F27.240387749999968
tp477
a(I28
F69.171203
F657.589520687
F18.637603078999973
tp478
a(I28
F71.107953
F618.49308175
F27.240387749999968
tp479
a(I28
F71.107953
F289.24558475000003
F11.746388749999994
tp480
a(I28
F107.260618
F265.28002597399995
F10.963295358000039
tp481
a(I28
F107.260618
F246.558109974
F10.963295357999982
tp482
a(I28
F107.260618
F227.836194974
F10.96329535800001
tp483
a(I28
F107.260618
F209.114278974
F10.96329535800001
tp484
a(I28
F107.260618
F174.898363974
F26.457294358000013
tp485
a(I28
F71.107953
F149.79959175
F11.746388749999994
tp486
a(I29
F71.107953
F478.96101875000005
F42.73438674999994
tp487
a(I29
F154.452755
F114.845784948
F21.926590716000007
tp488
a(I29
F71.107953
F93.16042675
F11.746388750000008
tp489
a(I30
F71.107953
F773.76662275
F11.746388749999937
tp490
a(I30
F69.171203
F492.417034687
F18.637603078999973
tp491
a(I30
F71.107953
F453.32059675000005
F27.240387749999968
tp492
a(I30
F71.107953
F432.01634775
F11.746388749999994
tp493
a(I30
F75.196647
F406.544427974
F12.074989776000052
tp494
a(I30
F134.482714
F406.544427974
F12.074989776000052
tp495
a(I30
F293.393033
F406.544427974
F12.074989776000052
tp496
a(I30
F352.6791
F406.544427974
F12.074989776000052
tp497
a(I30
F134.482714
F382.44262497399995
F10.963295358000039
tp498
a(I30
F352.6791
F382.44262497399995
F10.963295358000039
tp499
a(I30
F134.482714
F353.176181974
F10.963295358000039
tp500
a(I30
F134.482714
F322.61857297399996
F10.963295358000039
tp501
a(I30
F352.6791
F353.176181974
F10.963295358000039
tp502
a(I30
F352.6791
F322.61857297399996
F10.963295358000039
tp503
a(I30
F134.482714
F293.99771297399997
F10.963295358000039
tp504
a(I30
F352.6791
F293.99771297399997
F10.963295358000039
tp505
a(I30
F134.482714
F266.02243597399996
F10.963295358000039
tp506
a(I30
F134.482714
F238.692742974
F10.96329535800001
tp507
a(I30
F134.482714
F210.071883974
F10.96329535800001
tp508
a(I30
F134.482714
F180.159856974
F10.96329535800001
tp509
a(I30
F352.6791
F266.02243597399996
F10.963295358000039
tp510
a(I30
F352.6791
F238.692742974
F10.96329535800001
tp511
a(I30
F352.6791
F210.071883974
F10.96329535800001
tp512
a(I30
F352.6791
F180.159856974
F10.96329535800001
tp513
a(I30
F71.107953
F140.64305775
F12.937489999999997
tp514
a(I30
F69.171203
F112.211524687
F18.637603079000016
tp515
a(I30
F71.107953
F88.60908574999999
F11.746388750000008
tp516
a(I31
F71.107953
F756.58334575
F28.929665749999913
tp517
a(I31
F71.107953
F731.8037077500001
F12.937490000000025
tp518
a(I31
F109.197368
F707.27154275
F11.746388749999937
tp519
a(I31
F109.197368
F685.9672937500001
F12.937490000000025
tp520
a(I31
F109.197368
F664.66304475
F11.746388749999937
tp521
a(I31
F109.197368
F643.35879575
F12.937490000000025
tp522
a(I31
F109.197368
F622.05454675
F11.746388749999937
tp523
a(I31
F109.197368
F600.7502977500001
F12.937490000000025
tp524
a(I31
F109.197368
F579.44604875
F11.746388749999937
tp525
a(I31
F109.197368
F558.14179975
F12.937490000000025
tp526
a(I31
F109.197368
F536.83755075
F11.746388749999937
tp527
a(I31
F109.197368
F515.5333017500001
F11.746388749999937
tp528
a(I31
F109.197368
F494.22905275000005
F12.937489999999968
tp529
a(I31
F109.197368
F472.92480375
F11.746388749999994
tp530
a(I31
F109.197368
F451.62055475
F12.937489999999968
tp531
a(I31
F109.197368
F430.31630575
F11.746388749999994
tp532
a(I31
F109.197368
F409.01205675
F12.937489999999968
tp533
a(I31
F109.197368
F387.70780775000003
F11.746388749999994
tp534
a(I31
F109.197368
F366.40355975
F12.937489999999968
tp535
a(I31
F109.197368
F345.09931075000003
F11.746388749999994
tp536
a(I31
F109.197368
F323.79506175
F12.937489999999968
tp537
a(I31
F109.197368
F302.49081275000003
F11.746388749999994
tp538
a(I31
F69.171203
F270.83131068700004
F18.637603078999973
tp539
a(I31
F71.107953
F216.24087275
F42.734387749999996
tp540
a(I31
F69.171203
F187.809287687
F18.637603079
tp541
a(I31
F71.107953
F133.21884975
F42.73438675
tp542
a(I31
F71.107953
F96.42060175
F27.240387749999996
tp543
a(I32
F71.107953
F758.27262375
F27.240387749999968
tp544
a(I32
F69.171203
F702.2316076870001
F18.637603078999973
tp545
a(I32
F71.107953
F663.13516975
F27.240387749999968
tp546
a(I32
F107.260618
F639.1696109740001
F10.963295357999982
tp547
a(I32
F107.260618
F620.447694974
F10.963295357999982
tp548
a(I32
F107.260618
F601.725779974
F10.963295357999982
tp549
a(I32
F71.107953
F407.88228675000005
F11.746388749999994
tp550
a(I32
F69.171203
F384.21616002400003
F14.252284207999992
tp551
a(I32
F69.171203
F340.994337024
F14.252284207999992
tp552
a(I32
F69.171203
F297.772566024
F14.252284207999992
tp553
a(I32
F69.171203
F251.237846687
F18.63760307900003
tp554
a(I32
F71.107953
F196.64740874999998
F42.734387749999996
tp555
a(I32
F71.107953
F175.34315974999998
F12.937489999999997
tp556
a(I32
F109.197368
F110.47280875
F28.431488999999985
tp557
a(I32
F109.197368
F89.16855975
F12.937490000000011
tp558
a(I33
F71.107953
F742.7786237500001
F43.92548899999997
tp559
a(I33
F69.171203
F714.347051687
F18.637603078999973
tp560
a(I33
F71.107953
F659.75661375
F42.73438774999988
tp561
a(I33
F109.197368
F603.0206097500001
F45.14132900000004
tp562
a(I33
F109.197368
F580.3498547500001
F12.937490000000025
tp563
a(I33
F205.884224
F580.3498547500001
F11.746388749999937
tp564
a(I33
F109.197368
F546.2092787500001
F27.240388749999852
tp565
a(I33
F109.197368
F524.82969075
F12.937490000000025
tp566
a(I33
F221.883938
F524.82969075
F11.746388749999937
tp567
a(I33
F152.806525
F491.715807948
F21.926590715999964
tp568
a(I33
F71.107953
F454.53644975000003
F27.240388749999966
tp569
a(I33
F69.171203
F426.10486468700003
F18.637603078999973
tp570
a(I33
F71.107953
F387.00842675
F27.240387750000025
tp571
a(I33
F107.260618
F363.042867974
F10.963295358000039
tp572
a(I33
F107.260618
F344.32095197399997
F10.963295358000039
tp573
a(I33
F107.260618
F325.59903597399995
F10.963295358000039
tp574
a(I33
F107.260618
F306.877120974
F10.963295358000039
tp575
a(I33
F107.260618
F288.15520497399996
F10.963295358000039
tp576
a(I33
F107.260618
F269.433288974
F10.963295358000039
tp577
a(I33
F71.107953
F244.33451675
F11.746388750000023
tp578
a(I33
F71.107953
F207.53626875
F27.240387749999996
tp579
a(I33
F71.107953
F186.23201975
F11.746388749999994
tp580
a(I33
F69.171203
F157.800434687
F18.637603079
tp581
a(I33
F71.107953
F118.70399574999999
F27.240387749999996
tp582
a(I33
F109.197368
F94.17182975
F12.937489999999997
tp583
a(I34
F109.197368
F773.76662275
F12.937490000000025
tp584
a(I34
F109.197368
F752.46237375
F12.937490000000025
tp585
a(I34
F109.197368
F731.1581247500001
F12.937490000000025
tp586
a(I34
F109.197368
F709.85387575
F12.937490000000025
tp587
a(I34
F109.197368
F673.05562775
F28.431489000000056
tp588
a(I34
F109.197368
F651.7513787500001
F12.937490000000025
tp589
a(I34
F109.197368
F630.44712975
F12.937490000000025
tp590
a(I34
F109.197368
F609.14288075
F12.937490000000025
tp591
a(I34
F109.197368
F572.3446327500001
F28.431488999999942
tp592
a(I34
F71.107953
F390.29014175000003
F12.937489999999968
tp593
a(I34
F69.171203
F361.85855668700003
F18.637603078999973
tp594
a(I34
F71.107953
F338.25611675000005
F11.746388749999994
tp595
a(I34
F109.197368
F298.22995175
F28.431489999999997
tp596
a(I34
F109.197368
F261.43170375
F28.431489
tp597
a(I34
F109.197368
F178.15145775
F74.913487
tp598
a(I34
F71.107953
F153.61929275
F11.746388749999994
tp599
a(I34
F109.197368
F129.08712675
F12.937489999999997
tp600
a(I34
F109.197368
F107.78287775
F12.937490000000011
tp601
a(I34
F109.197368
F86.47862875
F12.937490000000011
tp602
a(I35
F71.107953
F773.76662275
F11.746388749999937
tp603
a(I35
F109.197368
F749.23445675
F12.937490000000025
tp604
a(I35
F109.197368
F727.93020875
F12.937490000000025
tp605
a(I35
F109.197368
F706.62595975
F12.937490000000025
tp606
a(I35
F69.171203
F674.9664706870001
F18.637603078999973
tp607
a(I35
F71.107953
F620.37603275
F42.73438774999988
tp608
a(I35
F71.107953
F583.57777175
F27.240387749999968
tp609
a(I35
F107.260618
F559.612212974
F10.963295357999982
tp610
a(I35
F107.260618
F540.8902969740001
F10.963295357999982
tp611
a(I35
F107.260618
F522.168381974
F10.963295357999982
tp612
a(I35
F107.260618
F503.446465974
F10.963295358000039
tp613
a(I35
F107.260618
F484.72454997399996
F10.963295358000039
tp614
a(I35
F69.171203
F452.498467687
F18.637603078999973
tp615
a(I35
F71.107953
F397.90802975
F42.73438675
tp616
a(I35
F71.107953
F376.60375475
F11.746388749999994
tp617
a(I35
F107.260618
F352.638195974
F10.963295358000039
tp618
a(I35
F107.260618
F333.91627997399996
F10.963295358000039
tp619
a(I35
F107.260618
F315.194364974
F10.963295358000039
tp620
a(I35
F107.260618
F296.472448974
F10.963295358000039
tp621
a(I36
F71.107953
F641.20685175
F27.240387749999854
tp622
a(I36
F69.171203
F612.7752796870001
F18.637603078999973
tp623
a(I36
F71.107953
F573.67882775
F27.240387749999968
tp624
a(I36
F109.197368
F291.55892475
F42.73438675
tp625
a(I36
F109.197368
F239.26667675
F42.73438775000005
tp626
a(I36
F109.197368
F202.46842875
F27.240388749999994
tp627
a(I36
F109.197368
F181.16417975
F11.746388749999994
tp628
a(I36
F71.107953
F128.22634975
F43.61194891400001
tp629
a(I36
F109.197368
F103.69418375
F12.937490000000011
tp630
a(I36
F109.197368
F82.38993475
F12.937490000000011
tp631
a(I37
F109.197368
F773.76662275
F12.937490000000025
tp632
a(I37
F71.107953
F702.7524597500001
F58.228385749999916
tp633
a(I37
F107.260618
F678.786900974
F10.963295357999982
tp634
a(I37
F107.260618
F660.064984974
F10.963295357999982
tp635
a(I37
F107.260618
F641.3430699740001
F10.963295357999982
tp636
a(I37
F69.171203
F609.1169606870001
F18.637603078999973
tp637
a(I37
F71.107953
F570.0205217500001
F27.240388749999852
tp638
a(I37
F69.171203
F346.773457687
F18.637603078999973
tp639
a(I37
F71.107953
F323.17101875000003
F11.746388749999994
tp640
a(I37
F107.260618
F299.20545997399995
F10.963295358000039
tp641
a(I37
F107.260618
F280.483543974
F10.963295358000039
tp642
a(I37
F107.260618
F261.76162897399996
F10.963295358000039
tp643
a(I37
F145.350033
F246.267628974
F10.963295357999982
tp644
a(I37
F145.350033
F227.545713974
F10.96329535800001
tp645
a(I37
F145.350033
F208.823797974
F10.96329535800001
tp646
a(I37
F145.350033
F190.101881974
F10.96329535800001
tp647
a(I38
F69.171203
F599.5192946870001
F18.637603078999973
tp648
a(I38
F71.107953
F575.91685475
F11.746388749999937
tp649
a(I38
F109.197368
F551.38468975
F12.937490000000025
tp650
a(I38
F109.197368
F530.08044075
F12.937490000000025
tp651
a(I38
F109.197368
F508.77619175
F12.937489999999968
tp652
a(I38
F109.197368
F487.47194275000004
F12.937489999999968
tp653
a(I38
F109.197368
F450.67369475000004
F28.431488999999942
tp654
a(I38
F251.0105
F244.726395948
F21.92659071600002
tp655
a(I38
F71.107953
F223.04103775
F11.746388749999994
tp656
a(I38
F107.260618
F199.075479974
F10.96329535800001
tp657
a(I38
F107.260618
F180.353563974
F10.96329535800001
tp658
a(I38
F107.260618
F161.631647974
F10.96329535800001
tp659
a(I38
F71.107953
F136.53287575
F11.746388749999994
tp660
a(I38
F69.171203
F112.866749024
F14.252284207999992
tp661
a(I38
F107.260618
F89.132611974
F10.963295357999996
tp662
a(I39
F107.260618
F774.333229974
F10.963295357999982
tp663
a(I39
F107.260618
F755.611313974
F10.963295357999982
tp664
a(I39
F69.171203
F728.150651024
F14.252284207999992
tp665
a(I39
F107.260618
F704.4165529740001
F10.963295357999982
tp666
a(I39
F107.260618
F685.694636974
F10.963295357999982
tp667
a(I39
F69.171203
F658.233987024
F14.252284207999992
tp668
a(I39
F107.260618
F634.499888974
F10.963295357999982
tp669
a(I39
F107.260618
F615.777973974
F10.963295357999982
tp670
a(I39
F107.260618
F597.056044974
F10.963295357999982
tp671
a(I39
F69.171203
F569.595395024
F14.252284207999992
tp672
a(I39
F107.260618
F545.861309974
F10.963295357999982
tp673
a(I39
F107.260618
F527.139393974
F10.963295357999982
tp674
a(I39
F69.171203
F494.91328568700004
F18.63760307900003
tp675
a(I39
F71.107953
F471.31084575
F11.746388749999994
tp676
a(I39
F69.171203
F188.024481687
F18.637603079
tp677
a(I39
F71.107953
F164.42204275
F11.746388749999994
tp678
a(I39
F69.171203
F140.755916024
F14.25228420800002
tp679
a(I39
F107.260618
F117.021830974
F10.963295357999996
tp680
a(I39
F107.260618
F98.299915974
F10.963295357999996
tp681
a(I40
F69.171203
F771.404732024
F14.252284207999992
tp682
a(I40
F107.260618
F747.670640974
F10.963295357999982
tp683
a(I40
F69.171203
F720.209984024
F14.252284207999992
tp684
a(I40
F107.260618
F696.475885974
F10.963295357999982
tp685
a(I40
F69.171203
F669.015223024
F14.252284207999992
tp686
a(I40
F107.260618
F645.281124974
F10.963295357999982
tp687
a(I40
F69.171203
F617.820462024
F14.252284207999992
tp688
a(I40
F107.260618
F594.086376974
F10.963295357999982
tp689
a(I40
F107.260618
F575.364460974
F10.963295357999982
tp690
a(I40
F69.171203
F547.9037850240001
F14.252284207999992
tp691
a(I40
F107.260618
F524.1696999740001
F10.963295357999982
tp692
a(I40
F69.171203
F496.709050024
F14.252284207999992
tp693
a(I40
F107.260618
F472.974938974
F10.963295358000039
tp694
a(I40
F107.260618
F454.253023974
F10.963295358000039
tp695
a(I40
F69.171203
F426.792374024
F14.252284207999992
tp696
a(I40
F107.260618
F403.05826197399995
F10.963295358000039
tp697
a(I40
F107.260618
F384.336346974
F10.963295358000039
tp698
a(I40
F69.171203
F356.87569702400003
F14.252284207999992
tp699
a(I40
F107.260618
F333.141611974
F10.963295358000039
tp700
a(I40
F107.260618
F314.419695974
F10.963295358000039
tp701
a(I40
F69.171203
F286.95904602400003
F14.252284207999992
tp702
a(I40
F107.260618
F263.22490897399996
F10.963295358000039
tp703
a(I40
F107.260618
F244.502992974
F10.96329535800001
tp704
a(I40
F107.260618
F225.781076974
F10.96329535800001
tp705
a(I40
F107.260618
F207.059161974
F10.96329535800001
tp706
a(I40
F69.171203
F174.833105687
F18.637603079
tp707
a(I40
F71.107953
F151.23066575
F11.746388749999994
tp708
a(I40
F69.171203
F127.564487024
F14.252284208000006
tp709
a(I40
F107.260618
F103.830401974
F10.963295357999996
tp710
a(I40
F107.260618
F85.108485974
F10.963295357999996
tp711
a(I41
F107.260618
F774.333229974
F10.963295357999982
tp712
a(I41
F107.260618
F755.611313974
F10.963295357999982
tp713
a(I41
F107.260618
F736.8893979740001
F10.963295357999982
tp714
a(I41
F107.260618
F718.167482974
F10.963295357999982
tp715
a(I41
F107.260618
F699.445566974
F10.963295357999982
tp716
a(I41
F107.260618
F680.7236509740001
F10.963295357999982
tp717
a(I41
F107.260618
F662.001734974
F10.963295357999982
tp718
a(I41
F107.260618
F643.279819974
F10.963295357999982
tp719
a(I41
F107.260618
F624.557903974
F10.963295357999982
tp720
a(I41
F107.260618
F605.835987974
F10.963295357999982
tp721
a(I41
F107.260618
F587.114071974
F10.963295357999982
tp722
a(I41
F69.171203
F559.6534220240001
F14.252284207999992
tp723
a(I41
F107.260618
F535.919310974
F10.963295357999982
tp724
a(I41
F107.260618
F517.1973949740001
F10.963295357999982
tp725
a(I41
F107.260618
F498.475479974
F10.963295358000039
tp726
a(I41
F107.260618
F479.753563974
F10.963295358000039
tp727
a(I41
F107.260618
F461.03164797399995
F10.963295358000039
tp728
a(I41
F69.171203
F433.570998024
F14.252284207999992
tp729
a(I41
F107.260618
F409.836886974
F10.963295358000039
tp730
a(I41
F107.260618
F391.11497097399996
F10.963295358000039
tp731
a(I41
F107.260618
F372.393055974
F10.963295358000039
tp732
a(I41
F107.260618
F353.67113997399997
F10.963295358000039
tp733
a(I41
F107.260618
F334.94922397399995
F10.963295358000039
tp734
a(I41
F69.171203
F307.488574024
F14.252284207999992
tp735
a(I41
F107.260618
F283.75448897399997
F10.963295358000039
tp736
a(I41
F107.260618
F265.03257397399994
F10.963295358000039
tp737
a(I41
F107.260618
F246.310657974
F10.96329535800001
tp738
a(I41
F107.260618
F227.588741974
F10.96329535800001
tp739
a(I41
F107.260618
F208.866825974
F10.96329535800001
tp740
a(I41
F107.260618
F190.144910974
F10.96329535800001
tp741
a(I41
F107.260618
F171.422994974
F10.96329535800001
tp742
a(I41
F107.260618
F152.701078974
F10.96329535800001
tp743
a(I41
F107.260618
F133.979162974
F10.96329535800001
tp744
a(I41
F69.171203
F101.753054687
F18.637603079
tp745
a(I42
F109.197368
F773.76662275
F12.937490000000025
tp746
a(I42
F109.197368
F752.46237375
F12.937490000000025
tp747
a(I42
F109.197368
F731.1581247500001
F12.937490000000025
tp748
a(I42
F109.197368
F709.85387575
F12.937490000000025
tp749
a(I42
F109.197368
F688.54962675
F12.937490000000025
tp750
a(I42
F109.197368
F667.24537775
F12.937490000000025
tp751
a(I42
F109.197368
F645.9411287500001
F12.937490000000025
tp752
a(I42
F109.197368
F624.63687975
F12.937490000000025
tp753
a(I42
F109.197368
F603.33263075
F12.937490000000025
tp754
a(I42
F201.472738
F572.080158948
F21.926590716000078
tp755
a(I42
F71.107953
F503.91280275
F58.22838674999997
tp756
a(I42
F69.171203
F475.481217687
F18.637603078999973
tp757
a(I42
F109.197368
F450.52306875000005
F12.937489999999968
tp758
a(I42
F109.197368
F429.21881975
F12.937489999999968
tp759
a(I42
F109.197368
F407.91457075000005
F12.937489999999968
tp760
a(I42
F109.197368
F386.61029575000003
F12.937489999999968
tp761
a(I42
F109.197368
F365.30604675
F12.937489999999968
tp762
a(I42
F109.197368
F344.00179775000004
F12.937489999999968
tp763
a(I42
F109.197368
F322.69754875
F12.937489999999968
tp764
a(I42
F109.197368
F301.39329975000004
F12.937489999999968
tp765
a(I42
F109.197368
F280.08905075
F12.937489999999968
tp766
a(I42
F109.197368
F258.78480175000004
F12.937489999999968
tp767
a(I42
F109.197368
F237.48055275
F12.937489999999997
tp768
a(I42
F109.197368
F216.17630375
F12.937489999999997
tp769
a(I42
F109.197368
F194.87205475
F12.937489999999997
tp770
a(I42
F109.197368
F173.56780575
F12.937489999999997
tp771
a(I42
F109.197368
F152.26355675
F12.937489999999997
tp772
a(I42
F109.197368
F130.95930775
F12.937489999999997
tp773
a(I42
F109.197368
F109.65505875
F12.937489999999997
tp774
a(I42
F109.197368
F88.35080975
F12.937489999999997
tp775
a(I43
F109.197368
F773.76662275
F12.937490000000025
tp776
a(I43
F109.197368
F752.46237375
F12.937490000000025
tp777
a(I43
F109.197368
F731.1581247500001
F12.937490000000025
tp778
a(I43
F69.171203
F699.498636687
F18.637603078999973
tp779
a(I43
F109.197368
F674.54047475
F12.937490000000025
tp780
a(I43
F109.197368
F653.23622575
F12.937490000000025
tp781
a(I43
F109.197368
F631.93197675
F12.937490000000025
tp782
a(I43
F109.197368
F610.6277277500001
F12.937490000000025
tp783
a(I43
F109.197368
F589.32347875
F12.937490000000025
tp784
a(I43
F109.197368
F568.01922975
F12.937490000000025
tp785
a(I43
F109.197368
F546.71498075
F12.937490000000025
tp786
a(I43
F109.197368
F525.41073175
F12.937490000000025
tp787
a(I43
F109.197368
F504.10648275
F12.937489999999968
tp788
a(I43
F109.197368
F482.80223375
F12.937489999999968
tp789
a(I43
F109.197368
F461.49798475
F12.937489999999968
tp790
a(I43
F69.171203
F429.838483687
F18.637603078999973
tp791
a(I43
F109.197368
F404.88033475000003
F12.937489999999968
tp792
a(I43
F109.197368
F383.57608575
F12.937489999999968
tp793
a(I43
F109.197368
F362.27183675000003
F12.937489999999968
tp794
a(I43
F109.197368
F340.96758775
F12.937489999999968
tp795
a(I43
F109.197368
F319.66333875000004
F12.937489999999968
tp796
a(I43
F109.197368
F298.35908975
F12.937489999999968
tp797
a(I43
F109.197368
F277.05484075000004
F12.937489999999968
tp798
a(I43
F109.197368
F255.75059174999998
F12.937489999999997
tp799
a(I43
F69.171203
F224.091089687
F18.637603079
tp800
a(I43
F109.197368
F199.13291575
F12.937489999999997
tp801
a(I43
F109.197368
F177.82866675
F12.937489999999997
tp802
a(I43
F109.197368
F156.52441775
F12.937489999999997
tp803
a(I43
F109.197368
F135.22016875
F12.937489999999997
tp804
a(I43
F109.197368
F113.91591975
F12.937489999999997
tp805
a(I43
F109.197368
F92.61167075
F12.937489999999997
tp806
a(I44
F69.171203
F766.6392996870001
F18.637603078999973
tp807
a(I44
F109.197368
F741.6811317500001
F12.937490000000025
tp808
a(I44
F109.197368
F720.37688875
F12.937490000000025
tp809
a(I44
F69.171203
F688.717387687
F18.637603078999973
tp810
a(I44
F109.197368
F663.75922575
F12.937490000000025
tp811
a(I44
F109.197368
F642.45497675
F12.937490000000025
tp812
a(I44
F109.197368
F621.15072775
F12.937490000000025
tp813
a(I44
F109.197368
F599.84649175
F12.937490000000025
tp814
a(I44
F69.171203
F568.186989687
F18.637603078999973
tp815
a(I44
F109.197368
F543.22881475
F12.937490000000025
tp816
a(I44
F109.197368
F521.92456575
F12.937490000000025
tp817
a(I44
F109.197368
F500.62031675000003
F12.937490000000025
tp818
a(I44
F211.188772
F469.367844948
F21.92659071600002
tp819
a(I44
F71.107953
F432.18848675000004
F27.240388749999966
tp820
a(I44
F69.171203
F403.756928687
F18.637603078999973
tp821
a(I45
F69.171203
F766.6392996870001
F18.637603078999973
tp822
a(I45
F71.107953
F743.0368597500001
F11.746388749999937
tp823
a(I45
F69.171203
F686.26857075
F47.35443448199999
tp824
a(I45
F69.171203
F614.00626975
F62.848446481999986
tp825
a(I45
F69.171203
F557.23799375
F47.35443348199999
tp826
a(I45
F69.171203
F484.97569275
F62.84843248200002
tp827
a(I45
F69.171203
F428.20738975
F47.35446048199998
tp828
a(I45
F69.171203
F355.94508875
F62.84845948200001
tp829
a(I45
F69.171203
F299.17683875
F47.354407482
tp830
a(I45
F69.171203
F214.383980948
F75.37896328400001
tp831
a(I45
F71.107953
F192.69862275
F11.746388749999994
tp832
a(I45
F107.260618
F168.733063974
F10.96329535800001
tp833
a(I45
F107.260618
F150.011148974
F10.96329535800001
tp834
a(I45
F107.260618
F131.289232974
F10.96329535800001
tp835
a(I45
F107.260618
F112.567316974
F10.963295357999996
tp836
a(I45
F107.260618
F93.845400974
F10.963295357999996
tp837
a(I46
F107.260618
F774.333229974
F10.963295357999982
tp838
a(I46
F71.107953
F749.23445675
F11.746388749999937
tp839
a(I46
F107.260618
F725.2688989740001
F10.963295357999982
tp840
a(I46
F107.260618
F706.546982974
F10.963295357999982
tp841
a(I46
F107.260618
F687.825066974
F10.963295357999982
tp842
a(I46
F107.260618
F669.1031519740001
F10.963295357999982
tp843
a(I46
F107.260618
F650.381235974
F10.963295357999982
tp844
a(I46
F107.260618
F631.659319974
F10.963295357999982
tp845
a(I46
F107.260618
F612.9374039740001
F10.963295357999982
tp846
a(I46
F107.260618
F594.215488974
F10.963295357999982
tp847
a(I46
F107.260618
F575.493572974
F10.963295357999982
tp848
a(I46
F107.260618
F556.771656974
F10.963295357999982
tp849
a(I46
F82.082869
F526.9225106680001
F11.372402213999976
tp850
a(I46
F91.831174
F527.409861386
F11.511459762000072
tp851
a(I46
F266.353873
F506.631353974
F10.963295358000039
tp852
a(I46
F453.54072
F527.409861386
F11.511459762000072
tp853
a(I46
F500.517676
F526.276927668
F11.372402213999976
tp854
a(I47
F148.846942
F770.3017769999999
F9.397110999999995
tp855
a(I47
F167.461261
F752.08557
F9.397110999999995
tp856
a(I47
F207.132349
F752.1464682239999
F8.61401760800004
tp857
a(I47
F152.236255
F612.312049292
F13.630845327000088
tp858
a(I47
F152.236255
F576.913425528
F10.601768718000017
tp859
a(I47
F84.051897
F548.380246608
F12.886197948000017
tp860
a.